target datalayout = "e-m:e-p270:32:32-p271:32:32-p272:64:64-i64:64-i128:128-f80:128-n8:16:32:64-S128"
target triple = "x86_64-unknown-linux-gnu"

%"class.std::basic_string_view" = type { i64, ptr }

@.str.2 = private unnamed_addr constant [5 x i8] c"http\00", align 1
@.str.3 = private unnamed_addr constant [24 x i8] c"grpc.internal.transport\00", align 1

; Function Attrs: mustprogress nounwind uwtable
define linkonce_odr noundef i32 @_ZNSt11char_traitsIcE7compareEPKcS2_m(ptr noundef %__s1, ptr noundef %__s2, i64 noundef %__n) #5 comdat align 2 {
entry:
  %retval = alloca i32, align 4
  %__s1.addr = alloca ptr, align 8
  %__s2.addr = alloca ptr, align 8
  %__n.addr = alloca i64, align 8
  store ptr %__s1, ptr %__s1.addr, align 8
  store ptr %__s2, ptr %__s2.addr, align 8
  store i64 %__n, ptr %__n.addr, align 8
  %0 = load i64, ptr %__n.addr, align 8
  %cmp = icmp eq i64 %0, 0
  br i1 %cmp, label %if.then, label %if.end

if.then:                                          ; preds = %entry
  store i32 0, ptr %retval, align 4
  br label %return

if.end:                                           ; preds = %entry
  %1 = load ptr, ptr %__s1.addr, align 8
  %2 = load ptr, ptr %__s2.addr, align 8
  %3 = load i64, ptr %__n.addr, align 8
  %call = call i32 @memcmp(ptr noundef %1, ptr noundef %2, i64 noundef %3) #3
  store i32 %call, ptr %retval, align 4
  br label %return

return:                                           ; preds = %if.end, %if.then
  %4 = load i32, ptr %retval, align 4
  ret i32 %4
}

; Function Attrs: mustprogress nounwind uwtable
define linkonce_odr noundef ptr @_ZNSt11char_traitsIcE4findEPKcmRS1_(ptr noundef %__s, i64 noundef %__n, ptr noundef nonnull align 1 dereferenceable(1) %__a) #5 comdat align 2 {
entry:
  %retval = alloca ptr, align 8
  %__s.addr = alloca ptr, align 8
  %__n.addr = alloca i64, align 8
  %__a.addr = alloca ptr, align 8
  store ptr %__s, ptr %__s.addr, align 8
  store i64 %__n, ptr %__n.addr, align 8
  store ptr %__a, ptr %__a.addr, align 8
  %0 = load i64, ptr %__n.addr, align 8
  %cmp = icmp eq i64 %0, 0
  br i1 %cmp, label %if.then, label %if.end

if.then:                                          ; preds = %entry
  store ptr null, ptr %retval, align 8
  br label %return

if.end:                                           ; preds = %entry
  %1 = load ptr, ptr %__s.addr, align 8
  %2 = load ptr, ptr %__a.addr, align 8
  %3 = load i8, ptr %2, align 1
  %conv = sext i8 %3 to i32
  %4 = load i64, ptr %__n.addr, align 8
  %call = call ptr @memchr(ptr noundef %1, i32 noundef %conv, i64 noundef %4) #3
  store ptr %call, ptr %retval, align 8
  br label %return

return:                                           ; preds = %if.end, %if.then
  %5 = load ptr, ptr %retval, align 8
  ret ptr %5
}

; Function Attrs: mustprogress nounwind uwtable
define linkonce_odr noundef i64 @_ZNKSt17basic_string_viewIcSt11char_traitsIcEE4findEPKcmm(ptr noundef nonnull align 8 dereferenceable(16) %this, ptr noundef %__str, i64 noundef %__pos, i64 noundef %__n) #5 comdat align 2 personality ptr @__gxx_personality_v0 {
entry:
  %retval = alloca i64, align 8
  %this.addr = alloca ptr, align 8
  %__str.addr = alloca ptr, align 8
  %__pos.addr = alloca i64, align 8
  %__n.addr = alloca i64, align 8
  %__elem0 = alloca i8, align 1
  %__first = alloca ptr, align 8
  %__last = alloca ptr, align 8
  %__len = alloca i64, align 8
  store ptr %this, ptr %this.addr, align 8
  store ptr %__str, ptr %__str.addr, align 8
  store i64 %__pos, ptr %__pos.addr, align 8
  store i64 %__n, ptr %__n.addr, align 8
  %this1 = load ptr, ptr %this.addr, align 8
  %0 = load i64, ptr %__n.addr, align 8
  %cmp = icmp eq i64 %0, 0
  br i1 %cmp, label %if.then, label %if.end

if.then:                                          ; preds = %entry
  %1 = load i64, ptr %__pos.addr, align 8
  %_M_len = getelementptr inbounds %"class.std::basic_string_view", ptr %this1, i32 0, i32 0
  %2 = load i64, ptr %_M_len, align 8
  %cmp2 = icmp ule i64 %1, %2
  br i1 %cmp2, label %cond.true, label %cond.false

cond.true:                                        ; preds = %if.then
  %3 = load i64, ptr %__pos.addr, align 8
  br label %cond.end

cond.false:                                       ; preds = %if.then
  br label %cond.end

cond.end:                                         ; preds = %cond.false, %cond.true
  %cond = phi i64 [ %3, %cond.true ], [ -1, %cond.false ]
  store i64 %cond, ptr %retval, align 8
  br label %return

if.end:                                           ; preds = %entry
  %4 = load i64, ptr %__pos.addr, align 8
  %_M_len3 = getelementptr inbounds %"class.std::basic_string_view", ptr %this1, i32 0, i32 0
  %5 = load i64, ptr %_M_len3, align 8
  %cmp4 = icmp uge i64 %4, %5
  br i1 %cmp4, label %if.then5, label %if.end6

if.then5:                                         ; preds = %if.end
  store i64 -1, ptr %retval, align 8
  br label %return

if.end6:                                          ; preds = %if.end
  %6 = load ptr, ptr %__str.addr, align 8
  %arrayidx = getelementptr inbounds i8, ptr %6, i64 0
  %7 = load i8, ptr %arrayidx, align 1
  store i8 %7, ptr %__elem0, align 1
  %_M_str = getelementptr inbounds %"class.std::basic_string_view", ptr %this1, i32 0, i32 1
  %8 = load ptr, ptr %_M_str, align 8
  %9 = load i64, ptr %__pos.addr, align 8
  %add.ptr = getelementptr inbounds i8, ptr %8, i64 %9
  store ptr %add.ptr, ptr %__first, align 8
  %_M_str7 = getelementptr inbounds %"class.std::basic_string_view", ptr %this1, i32 0, i32 1
  %10 = load ptr, ptr %_M_str7, align 8
  %_M_len8 = getelementptr inbounds %"class.std::basic_string_view", ptr %this1, i32 0, i32 0
  %11 = load i64, ptr %_M_len8, align 8
  %add.ptr9 = getelementptr inbounds i8, ptr %10, i64 %11
  store ptr %add.ptr9, ptr %__last, align 8
  %_M_len10 = getelementptr inbounds %"class.std::basic_string_view", ptr %this1, i32 0, i32 0
  %12 = load i64, ptr %_M_len10, align 8
  %13 = load i64, ptr %__pos.addr, align 8
  %sub = sub i64 %12, %13
  store i64 %sub, ptr %__len, align 8
  br label %while.cond

while.cond:                                       ; preds = %if.end20, %if.end6
  %14 = load i64, ptr %__len, align 8
  %15 = load i64, ptr %__n.addr, align 8
  %cmp11 = icmp uge i64 %14, %15
  br i1 %cmp11, label %while.body, label %while.end

while.body:                                       ; preds = %while.cond
  %16 = load ptr, ptr %__first, align 8
  %17 = load i64, ptr %__len, align 8
  %18 = load i64, ptr %__n.addr, align 8
  %sub12 = sub i64 %17, %18
  %add = add i64 %sub12, 1
  %call = invoke noundef ptr @_ZNSt11char_traitsIcE4findEPKcmRS1_(ptr noundef %16, i64 noundef %add, ptr noundef nonnull align 1 dereferenceable(1) %__elem0)
          to label %invoke.cont unwind label %terminate.lpad

invoke.cont:                                      ; preds = %while.body
  store ptr %call, ptr %__first, align 8
  %19 = load ptr, ptr %__first, align 8
  %tobool = icmp ne ptr %19, null
  br i1 %tobool, label %if.end14, label %if.then13

if.then13:                                        ; preds = %invoke.cont
  store i64 -1, ptr %retval, align 8
  br label %return

if.end14:                                         ; preds = %invoke.cont
  %20 = load ptr, ptr %__first, align 8
  %21 = load ptr, ptr %__str.addr, align 8
  %22 = load i64, ptr %__n.addr, align 8
  %call16 = invoke noundef i32 @_ZNSt11char_traitsIcE7compareEPKcS2_m(ptr noundef %20, ptr noundef %21, i64 noundef %22)
          to label %invoke.cont15 unwind label %terminate.lpad

invoke.cont15:                                    ; preds = %if.end14
  %cmp17 = icmp eq i32 %call16, 0
  br i1 %cmp17, label %if.then18, label %if.end20

if.then18:                                        ; preds = %invoke.cont15
  %23 = load ptr, ptr %__first, align 8
  %_M_str19 = getelementptr inbounds %"class.std::basic_string_view", ptr %this1, i32 0, i32 1
  %24 = load ptr, ptr %_M_str19, align 8
  %sub.ptr.lhs.cast = ptrtoint ptr %23 to i64
  %sub.ptr.rhs.cast = ptrtoint ptr %24 to i64
  %sub.ptr.sub = sub i64 %sub.ptr.lhs.cast, %sub.ptr.rhs.cast
  store i64 %sub.ptr.sub, ptr %retval, align 8
  br label %return

if.end20:                                         ; preds = %invoke.cont15
  %25 = load ptr, ptr %__last, align 8
  %26 = load ptr, ptr %__first, align 8
  %incdec.ptr = getelementptr inbounds i8, ptr %26, i32 1
  store ptr %incdec.ptr, ptr %__first, align 8
  %sub.ptr.lhs.cast21 = ptrtoint ptr %25 to i64
  %sub.ptr.rhs.cast22 = ptrtoint ptr %incdec.ptr to i64
  %sub.ptr.sub23 = sub i64 %sub.ptr.lhs.cast21, %sub.ptr.rhs.cast22
  store i64 %sub.ptr.sub23, ptr %__len, align 8
  br label %while.cond, !llvm.loop !4

while.end:                                        ; preds = %while.cond
  store i64 -1, ptr %retval, align 8
  br label %return

return:                                           ; preds = %while.end, %if.then18, %if.then13, %if.then5, %cond.end
  %27 = load i64, ptr %retval, align 8
  ret i64 %27

terminate.lpad:                                   ; preds = %if.end14, %while.body
  %28 = landingpad { ptr, i32 }
          catch ptr null
  %29 = extractvalue { ptr, i32 } %28, 0
  call void @__clang_call_terminate(ptr %29) #9
  unreachable
}

; Function Attrs: mustprogress nounwind uwtable
define linkonce_odr { i64, ptr } @_ZN9grpc_core9Transport14ChannelArgNameEv() #5 comdat align 2 {
entry:
  %retval = alloca %"class.std::basic_string_view", align 8
  call void @_ZNSt17basic_string_viewIcSt11char_traitsIcEEC2EPKc(ptr noundef nonnull align 8 dereferenceable(16) %retval, ptr noundef @.str.3) #3
  %0 = load { i64, ptr }, ptr %retval, align 8
  ret { i64, ptr } %0
}

; Function Attrs: mustprogress nounwind uwtable
define linkonce_odr noundef i64 @_ZNKSt17basic_string_viewIcSt11char_traitsIcEE4findES2_m(ptr noundef nonnull align 8 dereferenceable(16) %this, i64 %__str.coerce0, ptr %__str.coerce1, i64 noundef %__pos) #5 comdat align 2 {
entry:
  %__str = alloca %"class.std::basic_string_view", align 8
  %this.addr = alloca ptr, align 8
  %__pos.addr = alloca i64, align 8
  %0 = getelementptr inbounds { i64, ptr }, ptr %__str, i32 0, i32 0
  store i64 %__str.coerce0, ptr %0, align 8
  %1 = getelementptr inbounds { i64, ptr }, ptr %__str, i32 0, i32 1
  store ptr %__str.coerce1, ptr %1, align 8
  store ptr %this, ptr %this.addr, align 8
  store i64 %__pos, ptr %__pos.addr, align 8
  %this1 = load ptr, ptr %this.addr, align 8
  %_M_str = getelementptr inbounds %"class.std::basic_string_view", ptr %__str, i32 0, i32 1
  %2 = load ptr, ptr %_M_str, align 8
  %3 = load i64, ptr %__pos.addr, align 8
  %_M_len = getelementptr inbounds %"class.std::basic_string_view", ptr %__str, i32 0, i32 0
  %4 = load i64, ptr %_M_len, align 8
  %call = call noundef i64 @_ZNKSt17basic_string_viewIcSt11char_traitsIcEE4findEPKcmm(ptr noundef nonnull align 8 dereferenceable(16) %this1, ptr noundef %2, i64 noundef %3, i64 noundef %4) #3
  ret i64 %call
}

; Function Attrs: noreturn nounwind uwtable
define linkonce_odr hidden void @__clang_call_terminate(ptr noundef %0) #7 comdat {
  %2 = call ptr @__cxa_begin_catch(ptr %0) #3
  call void @_ZSt9terminatev() #9
  unreachable
}

; Function Attrs: mustprogress nounwind uwtable
define linkonce_odr noundef i64 @_ZNSt11char_traitsIcE6lengthEPKc(ptr noundef %__s) #5 comdat align 2 {
entry:
  %__s.addr = alloca ptr, align 8
  store ptr %__s, ptr %__s.addr, align 8
  %0 = load ptr, ptr %__s.addr, align 8
  %call = call i64 @strlen(ptr noundef %0) #3
  ret i64 %call
}

; Function Attrs: mustprogress nounwind uwtable
define linkonce_odr noundef ptr @_ZN9grpc_core13GetObjectImplINS_9TransportEvE3GetEPS1_(ptr noundef %p) #5 comdat align 2 {
entry:
  %p.addr = alloca ptr, align 8
  store ptr %p, ptr %p.addr, align 8
  %0 = load ptr, ptr %p.addr, align 8
  ret ptr %0
}

; Function Attrs: mustprogress uwtable
define linkonce_odr noundef ptr @_ZNK9grpc_core11ChannelArgs10GetPointerINS_9TransportEEENS_13GetObjectImplIT_vE10StoredTypeESt17basic_string_viewIcSt11char_traitsIcEE(ptr noundef nonnull align 8 dereferenceable(8) %this, i64 %name.coerce0, ptr %name.coerce1) #4 comdat align 2 {
entry:
  %name = alloca %"class.std::basic_string_view", align 8
  %this.addr = alloca ptr, align 8
  %agg.tmp = alloca %"class.std::basic_string_view", align 8
  %0 = getelementptr inbounds { i64, ptr }, ptr %name, i32 0, i32 0
  store i64 %name.coerce0, ptr %0, align 8
  %1 = getelementptr inbounds { i64, ptr }, ptr %name, i32 0, i32 1
  store ptr %name.coerce1, ptr %1, align 8
  store ptr %this, ptr %this.addr, align 8
  %this1 = load ptr, ptr %this.addr, align 8
  call void @llvm.memcpy.p0.p0.i64(ptr align 8 %agg.tmp, ptr align 8 %name, i64 16, i1 false)
  %2 = getelementptr inbounds { i64, ptr }, ptr %agg.tmp, i32 0, i32 0
  %3 = load i64, ptr %2, align 8
  %4 = getelementptr inbounds { i64, ptr }, ptr %agg.tmp, i32 0, i32 1
  %5 = load ptr, ptr %4, align 8
  %call = call noundef ptr @_ZNK9grpc_core11ChannelArgs14GetVoidPointerESt17basic_string_viewIcSt11char_traitsIcEE(ptr noundef nonnull align 8 dereferenceable(8) %this1, i64 %3, ptr %5)
  ret ptr %call
}

; Function Attrs: mustprogress uwtable
define linkonce_odr { i64, ptr } @_ZN9grpc_core20ChannelArgNameTraitsINS_9TransportEE14ChannelArgNameEv() #4 comdat align 2 {
entry:
  %retval = alloca %"class.std::basic_string_view", align 8
  %call = call { i64, ptr } @_ZN9grpc_core9Transport14ChannelArgNameEv()
  %0 = getelementptr inbounds { i64, ptr }, ptr %retval, i32 0, i32 0
  %1 = extractvalue { i64, ptr } %call, 0
  store i64 %1, ptr %0, align 8
  %2 = getelementptr inbounds { i64, ptr }, ptr %retval, i32 0, i32 1
  %3 = extractvalue { i64, ptr } %call, 1
  store ptr %3, ptr %2, align 8
  %4 = load { i64, ptr }, ptr %retval, align 8
  ret { i64, ptr } %4
}

; Function Attrs: mustprogress nounwind uwtable
define linkonce_odr noundef zeroext i1 @_ZN4absl12lts_2023080211StrContainsESt17basic_string_viewIcSt11char_traitsIcEES4_(i64 %haystack.coerce0, ptr %haystack.coerce1, i64 %needle.coerce0, ptr %needle.coerce1) #5 comdat {
entry:
  %haystack = alloca %"class.std::basic_string_view", align 8
  %needle = alloca %"class.std::basic_string_view", align 8
  %agg.tmp = alloca %"class.std::basic_string_view", align 8
  %0 = getelementptr inbounds { i64, ptr }, ptr %haystack, i32 0, i32 0
  store i64 %haystack.coerce0, ptr %0, align 8
  %1 = getelementptr inbounds { i64, ptr }, ptr %haystack, i32 0, i32 1
  store ptr %haystack.coerce1, ptr %1, align 8
  %2 = getelementptr inbounds { i64, ptr }, ptr %needle, i32 0, i32 0
  store i64 %needle.coerce0, ptr %2, align 8
  %3 = getelementptr inbounds { i64, ptr }, ptr %needle, i32 0, i32 1
  store ptr %needle.coerce1, ptr %3, align 8
  call void @llvm.memcpy.p0.p0.i64(ptr align 8 %agg.tmp, ptr align 8 %needle, i64 16, i1 false)
  %4 = getelementptr inbounds { i64, ptr }, ptr %agg.tmp, i32 0, i32 0
  %5 = load i64, ptr %4, align 8
  %6 = getelementptr inbounds { i64, ptr }, ptr %agg.tmp, i32 0, i32 1
  %7 = load ptr, ptr %6, align 8
  %call = call noundef i64 @_ZNKSt17basic_string_viewIcSt11char_traitsIcEE4findES2_m(ptr noundef nonnull align 8 dereferenceable(16) %haystack, i64 %5, ptr %7, i64 noundef 0) #3
  %cmp = icmp ne i64 %call, -1
  ret i1 %cmp
}

; Function Attrs: mustprogress nounwind uwtable
define linkonce_odr void @_ZNSt17basic_string_viewIcSt11char_traitsIcEEC2EPKc(ptr noundef nonnull align 8 dereferenceable(16) %this, ptr noundef nonnull %__str) unnamed_addr #5 comdat align 2 personality ptr @__gxx_personality_v0 {
entry:
  %this.addr = alloca ptr, align 8
  %__str.addr = alloca ptr, align 8
  store ptr %this, ptr %this.addr, align 8
  store ptr %__str, ptr %__str.addr, align 8
  %this1 = load ptr, ptr %this.addr, align 8
  %_M_len = getelementptr inbounds %"class.std::basic_string_view", ptr %this1, i32 0, i32 0
  %0 = load ptr, ptr %__str.addr, align 8
  %call = invoke noundef i64 @_ZNSt11char_traitsIcE6lengthEPKc(ptr noundef %0)
          to label %invoke.cont unwind label %terminate.lpad

invoke.cont:                                      ; preds = %entry
  store i64 %call, ptr %_M_len, align 8
  %_M_str = getelementptr inbounds %"class.std::basic_string_view", ptr %this1, i32 0, i32 1
  %1 = load ptr, ptr %__str.addr, align 8
  store ptr %1, ptr %_M_str, align 8
  ret void

terminate.lpad:                                   ; preds = %entry
  %2 = landingpad { ptr, i32 }
          catch ptr null
  %3 = extractvalue { ptr, i32 } %2, 0
  call void @__clang_call_terminate(ptr %3) #9
  unreachable
}

; Function Attrs: mustprogress uwtable
define linkonce_odr noundef ptr @_ZNK9grpc_core11ChannelArgs9GetObjectINS_9TransportEEENS_13GetObjectImplIT_vE6ResultEv(ptr noundef nonnull align 8 dereferenceable(8) %this) #4 comdat align 2 {
entry:
  %this.addr = alloca ptr, align 8
  %agg.tmp = alloca %"class.std::basic_string_view", align 8
  store ptr %this, ptr %this.addr, align 8
  %this1 = load ptr, ptr %this.addr, align 8
  %call = call { i64, ptr } @_ZN9grpc_core20ChannelArgNameTraitsINS_9TransportEE14ChannelArgNameEv()
  %0 = getelementptr inbounds { i64, ptr }, ptr %agg.tmp, i32 0, i32 0
  %1 = extractvalue { i64, ptr } %call, 0
  store i64 %1, ptr %0, align 8
  %2 = getelementptr inbounds { i64, ptr }, ptr %agg.tmp, i32 0, i32 1
  %3 = extractvalue { i64, ptr } %call, 1
  store ptr %3, ptr %2, align 8
  %4 = getelementptr inbounds { i64, ptr }, ptr %agg.tmp, i32 0, i32 0
  %5 = load i64, ptr %4, align 8
  %6 = getelementptr inbounds { i64, ptr }, ptr %agg.tmp, i32 0, i32 1
  %7 = load ptr, ptr %6, align 8
  %call2 = call noundef ptr @_ZNK9grpc_core11ChannelArgs10GetPointerINS_9TransportEEENS_13GetObjectImplIT_vE10StoredTypeESt17basic_string_viewIcSt11char_traitsIcEE(ptr noundef nonnull align 8 dereferenceable(8) %this1, i64 %5, ptr %7)
  %call3 = call noundef ptr @_ZN9grpc_core13GetObjectImplINS_9TransportEvE3GetEPS1_(ptr noundef %call2)
  ret ptr %call3
}

; Function Attrs: mustprogress uwtable
define internal noundef zeroext i1 @_ZN9grpc_core12_GLOBAL__N_127IsBuildingHttpLikeTransportERKNS_11ChannelArgsE(ptr noundef nonnull align 8 dereferenceable(8) %args) #4 {
entry:
  %args.addr = alloca ptr, align 8
  %t = alloca ptr, align 8
  %agg.tmp = alloca %"class.std::basic_string_view", align 8
  %agg.tmp2 = alloca %"class.std::basic_string_view", align 8
  store ptr %args, ptr %args.addr, align 8
  %0 = load ptr, ptr %args.addr, align 8
  %call = call noundef ptr @_ZNK9grpc_core11ChannelArgs9GetObjectINS_9TransportEEENS_13GetObjectImplIT_vE6ResultEv(ptr noundef nonnull align 8 dereferenceable(8) %0)
  store ptr %call, ptr %t, align 8
  %1 = load ptr, ptr %t, align 8
  %cmp = icmp ne ptr %1, null
  br i1 %cmp, label %land.rhs, label %land.end

land.rhs:                                         ; preds = %entry
  %2 = load ptr, ptr %t, align 8
  %vtable = load ptr, ptr %2, align 8
  %vfn = getelementptr inbounds ptr, ptr %vtable, i64 6
  %3 = load ptr, ptr %vfn, align 8
  %call1 = call { i64, ptr } %3(ptr noundef nonnull align 8 dereferenceable(8) %2)
  %4 = getelementptr inbounds { i64, ptr }, ptr %agg.tmp, i32 0, i32 0
  %5 = extractvalue { i64, ptr } %call1, 0
  store i64 %5, ptr %4, align 8
  %6 = getelementptr inbounds { i64, ptr }, ptr %agg.tmp, i32 0, i32 1
  %7 = extractvalue { i64, ptr } %call1, 1
  store ptr %7, ptr %6, align 8
  call void @_ZNSt17basic_string_viewIcSt11char_traitsIcEEC2EPKc(ptr noundef nonnull align 8 dereferenceable(16) %agg.tmp2, ptr noundef @.str.2) #3
  %8 = getelementptr inbounds { i64, ptr }, ptr %agg.tmp, i32 0, i32 0
  %9 = load i64, ptr %8, align 8
  %10 = getelementptr inbounds { i64, ptr }, ptr %agg.tmp, i32 0, i32 1
  %11 = load ptr, ptr %10, align 8
  %12 = getelementptr inbounds { i64, ptr }, ptr %agg.tmp2, i32 0, i32 0
  %13 = load i64, ptr %12, align 8
  %14 = getelementptr inbounds { i64, ptr }, ptr %agg.tmp2, i32 0, i32 1
  %15 = load ptr, ptr %14, align 8
  %call3 = call noundef zeroext i1 @_ZN4absl12lts_2023080211StrContainsESt17basic_string_viewIcSt11char_traitsIcEES4_(i64 %9, ptr %11, i64 %13, ptr %15) #3
  br label %land.end

land.end:                                         ; preds = %land.rhs, %entry
  %16 = phi i1 [ false, %entry ], [ %call3, %land.rhs ]
  ret i1 %16
}