; Function Attrs: mustprogress uwtable
define internal noundef zeroext i1 @_ZN9grpc_core12_GLOBAL__N_127IsBuildingHttpLikeTransportERKNS_11ChannelArgsE(ptr noundef nonnull align 8 dereferenceable(8) %args) #3 personality ptr @__gxx_personality_v0 {
entry:
  %call.i.i = tail call noundef ptr @_ZNK9grpc_core11ChannelArgs14GetVoidPointerESt17basic_string_viewIcSt11char_traitsIcEE(ptr noundef nonnull align 8 dereferenceable(8) %args, i64 23, ptr nonnull @.str.3)
  %cmp.not = icmp eq ptr %call.i.i, null
  br i1 %cmp.not, label %land.end, label %land.rhs

land.rhs:                                         ; preds = %entry
  %vtable = load ptr, ptr %call.i.i, align 8
  %vfn = getelementptr inbounds i8, ptr %vtable, i64 48
  %0 = load ptr, ptr %vfn, align 8
  %call1 = tail call { i64, ptr } %0(ptr noundef nonnull align 8 dereferenceable(8) %call.i.i)
  %1 = extractvalue { i64, ptr } %call1, 0
  %2 = extractvalue { i64, ptr } %call1, 1
  %cmp11.not20.i.i.i = icmp ult i64 %1, 4
  br i1 %cmp11.not20.i.i.i, label %land.end, label %while.body.lr.ph.i.i.i

while.body.lr.ph.i.i.i:                           ; preds = %land.rhs
  %add.ptr9.i.i.i = getelementptr inbounds i8, ptr %2, i64 %1
  %sub.ptr.lhs.cast21.i.i.i = ptrtoint ptr %add.ptr9.i.i.i to i64
  br label %while.body.i.i.i

while.body.i.i.i:                                 ; preds = %if.end20.i.i.i, %while.body.lr.ph.i.i.i
  %__len.022.i.i.i = phi i64 [ %1, %while.body.lr.ph.i.i.i ], [ %sub.ptr.sub23.i.i.i, %if.end20.i.i.i ]
  %__first.021.i.i.i = phi ptr [ %2, %while.body.lr.ph.i.i.i ], [ %incdec.ptr.i.i.i, %if.end20.i.i.i ]
  %add.i.i.i = add i64 %__len.022.i.i.i, -3
  %call.i.i.i.i = tail call ptr @memchr(ptr noundef %__first.021.i.i.i, i32 noundef 104, i64 noundef %add.i.i.i) #10
  %tobool.not.i.i.i = icmp eq ptr %call.i.i.i.i, null
  br i1 %tobool.not.i.i.i, label %land.end, label %_ZNSt11char_traitsIcE7compareEPKcS2_m.exit.i.i.i

_ZNSt11char_traitsIcE7compareEPKcS2_m.exit.i.i.i: ; preds = %while.body.i.i.i
  %bcmp.i.i.i = tail call i32 @bcmp(ptr noundef nonnull dereferenceable(4) %call.i.i.i.i, ptr noundef nonnull dereferenceable(4) @.str.2, i64 4)
  %cmp17.i.i.i = icmp eq i32 %bcmp.i.i.i, 0
  br i1 %cmp17.i.i.i, label %if.then18.i.i.i, label %if.end20.i.i.i

if.then18.i.i.i:                                  ; preds = %_ZNSt11char_traitsIcE7compareEPKcS2_m.exit.i.i.i
  %sub.ptr.lhs.cast.i.i.i = ptrtoint ptr %call.i.i.i.i to i64
  %sub.ptr.rhs.cast.i.i.i = ptrtoint ptr %2 to i64
  %sub.ptr.sub.i.i.i = sub i64 %sub.ptr.lhs.cast.i.i.i, %sub.ptr.rhs.cast.i.i.i
  %3 = icmp ne i64 %sub.ptr.sub.i.i.i, -1
  br label %land.end

if.end20.i.i.i:                                   ; preds = %_ZNSt11char_traitsIcE7compareEPKcS2_m.exit.i.i.i
  %incdec.ptr.i.i.i = getelementptr inbounds i8, ptr %call.i.i.i.i, i64 1
  %sub.ptr.rhs.cast22.i.i.i = ptrtoint ptr %incdec.ptr.i.i.i to i64
  %sub.ptr.sub23.i.i.i = sub i64 %sub.ptr.lhs.cast21.i.i.i, %sub.ptr.rhs.cast22.i.i.i
  %cmp11.not.i.i.i = icmp ult i64 %sub.ptr.sub23.i.i.i, 4
  br i1 %cmp11.not.i.i.i, label %land.end, label %while.body.i.i.i, !llvm.loop !4

land.end:                                         ; preds = %if.end20.i.i.i, %while.body.i.i.i, %if.then18.i.i.i, %land.rhs, %entry
  %4 = phi i1 [ false, %entry ], [ %3, %if.then18.i.i.i ], [ false, %land.rhs ], [ false, %while.body.i.i.i ], [ false, %if.end20.i.i.i ]
  ret i1 %4
}